target datalayout = "e-m:e-p270:32:32-p271:32:32-p272:64:64-i64:64-i128:128-f80:128-n8:16:32:64-S128"
target triple = "x86_64-pc-linux-gnu"

%struct.location = type { i32, i32 }
%struct.block = type { ptr, ptr }
%struct.inst = type { ptr, ptr, i32, %struct.anon, ptr, %struct.location, ptr, ptr, i32, i32, i32, i32, %struct.block, %struct.block, ptr, i32 }
%struct.anon = type { i16, ptr, %struct.jv, ptr }
%struct.jv = type { i8, i8, i16, i32, %union.anon }
%union.anon = type { ptr }

; Function Attrs: nounwind uwtable
define dso_local { i64, ptr } @block_module_meta(ptr %0, ptr %1) #0 {
  %3 = alloca %struct.jv, align 8
  %4 = alloca %struct.block, align 8
  %5 = getelementptr inbounds nuw { ptr, ptr }, ptr %4, i32 0, i32 0
  store ptr %0, ptr %5, align 8
  %6 = getelementptr inbounds nuw { ptr, ptr }, ptr %4, i32 0, i32 1
  store ptr %1, ptr %6, align 8
  %7 = getelementptr inbounds nuw %struct.block, ptr %4, i32 0, i32 0
  %8 = load ptr, ptr %7, align 8, !tbaa !4
  %9 = icmp ne ptr %8, null
  br i1 %9, label %10, label %30

10:                                               ; preds = %2
  %11 = getelementptr inbounds nuw %struct.block, ptr %4, i32 0, i32 0
  %12 = load ptr, ptr %11, align 8, !tbaa !4
  %13 = getelementptr inbounds nuw %struct.inst, ptr %12, i32 0, i32 2
  %14 = load i32, ptr %13, align 8, !tbaa !33
  %15 = icmp eq i32 %14, 38
  br i1 %15, label %16, label %30

16:                                               ; preds = %10
  %17 = getelementptr inbounds nuw %struct.block, ptr %4, i32 0, i32 0
  %18 = load ptr, ptr %17, align 8, !tbaa !4
  %19 = getelementptr inbounds nuw %struct.inst, ptr %18, i32 0, i32 3
  %20 = getelementptr inbounds nuw %struct.anon, ptr %19, i32 0, i32 2
  %21 = getelementptr inbounds nuw { i64, ptr }, ptr %20, i32 0, i32 0
  %22 = load i64, ptr %21, align 8
  %23 = getelementptr inbounds nuw { i64, ptr }, ptr %20, i32 0, i32 1
  %24 = load ptr, ptr %23, align 8
  %25 = call { i64, ptr } @jv_copy(i64 %22, ptr %24)
  %26 = getelementptr inbounds nuw { i64, ptr }, ptr %3, i32 0, i32 0
  %27 = extractvalue { i64, ptr } %25, 0
  store i64 %27, ptr %26, align 8
  %28 = getelementptr inbounds nuw { i64, ptr }, ptr %3, i32 0, i32 1
  %29 = extractvalue { i64, ptr } %25, 1
  store ptr %29, ptr %28, align 8
  br label %36

30:                                               ; preds = %10, %2
  %31 = call { i64, ptr } @jv_null()
  %32 = getelementptr inbounds nuw { i64, ptr }, ptr %3, i32 0, i32 0
  %33 = extractvalue { i64, ptr } %31, 0
  store i64 %33, ptr %32, align 8
  %34 = getelementptr inbounds nuw { i64, ptr }, ptr %3, i32 0, i32 1
  %35 = extractvalue { i64, ptr } %31, 1
  store ptr %35, ptr %34, align 8
  br label %36

36:                                               ; preds = %30, %16
  %37 = load { i64, ptr }, ptr %3, align 8
  ret { i64, ptr } %37
}