; Function Attrs: nounwind uwtable
define dso_local { i64, ptr } @block_module_meta(ptr readonly captures(address_is_null) %0, ptr readnone captures(none) %1) local_unnamed_addr #1 {
  %.not = icmp eq ptr %0, null
  br i1 %.not, label %13, label %3

3:                                                ; preds = %2
  %4 = getelementptr inbounds nuw i8, ptr %0, i64 16
  %5 = load i32, ptr %4, align 8, !tbaa !25
  %6 = icmp eq i32 %5, 38
  br i1 %6, label %7, label %13

7:                                                ; preds = %3
  %8 = getelementptr inbounds nuw i8, ptr %0, i64 40
  %9 = load i64, ptr %8, align 8
  %10 = getelementptr inbounds nuw i8, ptr %0, i64 48
  %11 = load ptr, ptr %10, align 8
  %12 = tail call { i64, ptr } @jv_copy(i64 %9, ptr %11) #17
  br label %15

13:                                               ; preds = %3, %2
  %14 = tail call { i64, ptr } @jv_null() #17
  br label %15

15:                                               ; preds = %13, %7
  %.pn = phi { i64, ptr } [ %12, %7 ], [ %14, %13 ]
  ret { i64, ptr } %.pn
}